#include <math.h>
#include <stdio.h>
#include <stdlib.h>
#include <string.h>

int main()
{
	int n,m,b[100],c[100],i;
	scanf("%d%d",&n,&m);
	void xu(int a[],int l);
	for(i=0;i<n;i++)
		scanf("%d",&b[i]);
	for(i=0;i<m;i++)
		scanf("%d",&c[i]);
	xu(b,n);
	xu(c,m);
	for(i=0;i<n;i++)
		printf("%d ",b[i]);
	for(i=0;i<m-1;i++)
		printf("%d ",c[i]);
	printf("%d\n",c[m-1]);
}

void xu(int a[],int l)
{
	int j=0,k,t;
	while(j<l)
	{
		k=j+1;
		while(k<l)
		{  
			if(*(a+j)>*(a+k)) {t=*(a+j);*(a+j)=*(a+k);*(a+k)=t;}
			k++;
		}
		j++;
	}
}