; ModuleID = 'source-C-CXX/7/981.c'
source_filename = "source-C-CXX/7/981.c"
target datalayout = "e-m:e-p270:32:32-p271:32:32-p272:64:64-i64:64-f80:128-n8:16:32:64-S128"
target triple = "x86_64-pc-linux-gnu"

@.str = private unnamed_addr constant [5 x i8] c"%d%d\00", align 1
@.str.1 = private unnamed_addr constant [3 x i8] c"%d\00", align 1
@.str.2 = private unnamed_addr constant [4 x i8] c"%d \00", align 1
@.str.3 = private unnamed_addr constant [4 x i8] c"%d\0A\00", align 1

; Function Attrs: nofree nounwind sspstrong uwtable
define dso_local i32 @main() local_unnamed_addr #0 {
  %1 = alloca i32, align 4
  %2 = alloca i32, align 4
  %3 = alloca [100 x i32], align 16
  %4 = alloca [100 x i32], align 16
  %5 = bitcast i32* %1 to i8*
  call void @llvm.lifetime.start.p0i8(i64 4, i8* nonnull %5) #4
  %6 = bitcast i32* %2 to i8*
  call void @llvm.lifetime.start.p0i8(i64 4, i8* nonnull %6) #4
  %7 = bitcast [100 x i32]* %3 to i8*
  call void @llvm.lifetime.start.p0i8(i64 400, i8* nonnull %7) #4
  %8 = bitcast [100 x i32]* %4 to i8*
  call void @llvm.lifetime.start.p0i8(i64 400, i8* nonnull %8) #4
  %9 = call i32 (i8*, ...) @__isoc99_scanf(i8* getelementptr inbounds ([5 x i8], [5 x i8]* @.str, i64 0, i64 0), i32* nonnull %1, i32* nonnull %2)
  %10 = load i32, i32* %1, align 4, !tbaa !5
  %11 = icmp sgt i32 %10, 0
  br i1 %11, label %16, label %12

12:                                               ; preds = %16, %0
  %13 = phi i32 [ %10, %0 ], [ %21, %16 ]
  %14 = load i32, i32* %2, align 4, !tbaa !5
  %15 = icmp sgt i32 %14, 0
  br i1 %15, label %24, label %34

16:                                               ; preds = %0, %16
  %17 = phi i64 [ %20, %16 ], [ 0, %0 ]
  %18 = getelementptr inbounds [100 x i32], [100 x i32]* %3, i64 0, i64 %17
  %19 = call i32 (i8*, ...) @__isoc99_scanf(i8* getelementptr inbounds ([3 x i8], [3 x i8]* @.str.1, i64 0, i64 0), i32* nonnull %18)
  %20 = add nuw nsw i64 %17, 1
  %21 = load i32, i32* %1, align 4, !tbaa !5
  %22 = sext i32 %21 to i64
  %23 = icmp slt i64 %20, %22
  br i1 %23, label %16, label %12, !llvm.loop !9

24:                                               ; preds = %12, %24
  %25 = phi i64 [ %28, %24 ], [ 0, %12 ]
  %26 = getelementptr inbounds [100 x i32], [100 x i32]* %4, i64 0, i64 %25
  %27 = call i32 (i8*, ...) @__isoc99_scanf(i8* getelementptr inbounds ([3 x i8], [3 x i8]* @.str.1, i64 0, i64 0), i32* nonnull %26)
  %28 = add nuw nsw i64 %25, 1
  %29 = load i32, i32* %2, align 4, !tbaa !5
  %30 = sext i32 %29 to i64
  %31 = icmp slt i64 %28, %30
  br i1 %31, label %24, label %32, !llvm.loop !11

32:                                               ; preds = %24
  %33 = load i32, i32* %1, align 4, !tbaa !5
  br label %34

34:                                               ; preds = %32, %12
  %35 = phi i32 [ %13, %12 ], [ %33, %32 ]
  %36 = phi i32 [ %14, %12 ], [ %29, %32 ]
  %37 = icmp sgt i32 %35, 0
  br i1 %37, label %38, label %79

38:                                               ; preds = %34
  %39 = zext i32 %35 to i64
  %40 = add nsw i64 %39, -2
  br label %44

41:                                               ; preds = %63, %156, %44
  %42 = add nuw nsw i64 %46, 1
  %43 = icmp eq i64 %47, %39
  br i1 %43, label %79, label %44, !llvm.loop !12

44:                                               ; preds = %41, %38
  %45 = phi i64 [ 0, %38 ], [ %47, %41 ]
  %46 = phi i64 [ 1, %38 ], [ %42, %41 ]
  %47 = add nuw nsw i64 %45, 1
  %48 = getelementptr inbounds [100 x i32], [100 x i32]* %3, i64 0, i64 %45
  %49 = icmp ult i64 %47, %39
  br i1 %49, label %50, label %41

50:                                               ; preds = %44
  %51 = xor i64 %45, -1
  %52 = add nsw i64 %51, %39
  %53 = and i64 %52, 1
  %54 = icmp eq i64 %53, 0
  br i1 %54, label %63, label %55

55:                                               ; preds = %50
  %56 = load i32, i32* %48, align 4, !tbaa !5
  %57 = getelementptr inbounds [100 x i32], [100 x i32]* %3, i64 0, i64 %46
  %58 = load i32, i32* %57, align 4, !tbaa !5
  %59 = icmp sgt i32 %56, %58
  br i1 %59, label %60, label %61

60:                                               ; preds = %55
  store i32 %58, i32* %48, align 4, !tbaa !5
  store i32 %56, i32* %57, align 4, !tbaa !5
  br label %61

61:                                               ; preds = %60, %55
  %62 = add nuw nsw i64 %46, 1
  br label %63

63:                                               ; preds = %61, %50
  %64 = phi i64 [ %62, %61 ], [ %46, %50 ]
  %65 = icmp eq i64 %40, %45
  br i1 %65, label %41, label %66

66:                                               ; preds = %63, %156
  %67 = phi i64 [ %157, %156 ], [ %64, %63 ]
  %68 = load i32, i32* %48, align 4, !tbaa !5
  %69 = getelementptr inbounds [100 x i32], [100 x i32]* %3, i64 0, i64 %67
  %70 = load i32, i32* %69, align 4, !tbaa !5
  %71 = icmp sgt i32 %68, %70
  br i1 %71, label %72, label %73

72:                                               ; preds = %66
  store i32 %70, i32* %48, align 4, !tbaa !5
  store i32 %68, i32* %69, align 4, !tbaa !5
  br label %73

73:                                               ; preds = %72, %66
  %74 = add nuw nsw i64 %67, 1
  %75 = load i32, i32* %48, align 4, !tbaa !5
  %76 = getelementptr inbounds [100 x i32], [100 x i32]* %3, i64 0, i64 %74
  %77 = load i32, i32* %76, align 4, !tbaa !5
  %78 = icmp sgt i32 %75, %77
  br i1 %78, label %155, label %156

79:                                               ; preds = %41, %34
  %80 = icmp sgt i32 %36, 0
  br i1 %80, label %81, label %122

81:                                               ; preds = %79
  %82 = zext i32 %36 to i64
  %83 = add nsw i64 %82, -2
  br label %87

84:                                               ; preds = %106, %160, %87
  %85 = add nuw nsw i64 %89, 1
  %86 = icmp eq i64 %90, %82
  br i1 %86, label %122, label %87, !llvm.loop !12

87:                                               ; preds = %84, %81
  %88 = phi i64 [ 0, %81 ], [ %90, %84 ]
  %89 = phi i64 [ 1, %81 ], [ %85, %84 ]
  %90 = add nuw nsw i64 %88, 1
  %91 = getelementptr inbounds [100 x i32], [100 x i32]* %4, i64 0, i64 %88
  %92 = icmp ult i64 %90, %82
  br i1 %92, label %93, label %84

93:                                               ; preds = %87
  %94 = xor i64 %88, -1
  %95 = add nsw i64 %94, %82
  %96 = and i64 %95, 1
  %97 = icmp eq i64 %96, 0
  br i1 %97, label %106, label %98

98:                                               ; preds = %93
  %99 = load i32, i32* %91, align 4, !tbaa !5
  %100 = getelementptr inbounds [100 x i32], [100 x i32]* %4, i64 0, i64 %89
  %101 = load i32, i32* %100, align 4, !tbaa !5
  %102 = icmp sgt i32 %99, %101
  br i1 %102, label %103, label %104

103:                                              ; preds = %98
  store i32 %101, i32* %91, align 4, !tbaa !5
  store i32 %99, i32* %100, align 4, !tbaa !5
  br label %104

104:                                              ; preds = %103, %98
  %105 = add nuw nsw i64 %89, 1
  br label %106

106:                                              ; preds = %104, %93
  %107 = phi i64 [ %105, %104 ], [ %89, %93 ]
  %108 = icmp eq i64 %83, %88
  br i1 %108, label %84, label %109

109:                                              ; preds = %106, %160
  %110 = phi i64 [ %161, %160 ], [ %107, %106 ]
  %111 = load i32, i32* %91, align 4, !tbaa !5
  %112 = getelementptr inbounds [100 x i32], [100 x i32]* %4, i64 0, i64 %110
  %113 = load i32, i32* %112, align 4, !tbaa !5
  %114 = icmp sgt i32 %111, %113
  br i1 %114, label %115, label %116

115:                                              ; preds = %109
  store i32 %113, i32* %91, align 4, !tbaa !5
  store i32 %111, i32* %112, align 4, !tbaa !5
  br label %116

116:                                              ; preds = %115, %109
  %117 = add nuw nsw i64 %110, 1
  %118 = load i32, i32* %91, align 4, !tbaa !5
  %119 = getelementptr inbounds [100 x i32], [100 x i32]* %4, i64 0, i64 %117
  %120 = load i32, i32* %119, align 4, !tbaa !5
  %121 = icmp sgt i32 %118, %120
  br i1 %121, label %159, label %160

122:                                              ; preds = %84, %79
  br i1 %37, label %131, label %125

123:                                              ; preds = %131
  %124 = load i32, i32* %2, align 4, !tbaa !5
  br label %125

125:                                              ; preds = %123, %122
  %126 = phi i32 [ %124, %123 ], [ %36, %122 ]
  %127 = icmp sgt i32 %126, 1
  br i1 %127, label %140, label %128

128:                                              ; preds = %125
  %129 = add nsw i32 %126, -1
  %130 = sext i32 %129 to i64
  br label %150

131:                                              ; preds = %122, %131
  %132 = phi i64 [ %136, %131 ], [ 0, %122 ]
  %133 = getelementptr inbounds [100 x i32], [100 x i32]* %3, i64 0, i64 %132
  %134 = load i32, i32* %133, align 4, !tbaa !5
  %135 = call i32 (i8*, ...) @printf(i8* nonnull dereferenceable(1) getelementptr inbounds ([4 x i8], [4 x i8]* @.str.2, i64 0, i64 0), i32 %134)
  %136 = add nuw nsw i64 %132, 1
  %137 = load i32, i32* %1, align 4, !tbaa !5
  %138 = sext i32 %137 to i64
  %139 = icmp slt i64 %136, %138
  br i1 %139, label %131, label %123, !llvm.loop !13

140:                                              ; preds = %125, %140
  %141 = phi i64 [ %145, %140 ], [ 0, %125 ]
  %142 = getelementptr inbounds [100 x i32], [100 x i32]* %4, i64 0, i64 %141
  %143 = load i32, i32* %142, align 4, !tbaa !5
  %144 = call i32 (i8*, ...) @printf(i8* nonnull dereferenceable(1) getelementptr inbounds ([4 x i8], [4 x i8]* @.str.2, i64 0, i64 0), i32 %143)
  %145 = add nuw nsw i64 %141, 1
  %146 = load i32, i32* %2, align 4, !tbaa !5
  %147 = add nsw i32 %146, -1
  %148 = sext i32 %147 to i64
  %149 = icmp slt i64 %145, %148
  br i1 %149, label %140, label %150, !llvm.loop !14

150:                                              ; preds = %140, %128
  %151 = phi i64 [ %130, %128 ], [ %148, %140 ]
  %152 = getelementptr inbounds [100 x i32], [100 x i32]* %4, i64 0, i64 %151
  %153 = load i32, i32* %152, align 4, !tbaa !5
  %154 = call i32 (i8*, ...) @printf(i8* nonnull dereferenceable(1) getelementptr inbounds ([4 x i8], [4 x i8]* @.str.3, i64 0, i64 0), i32 %153)
  call void @llvm.lifetime.end.p0i8(i64 400, i8* nonnull %8) #4
  call void @llvm.lifetime.end.p0i8(i64 400, i8* nonnull %7) #4
  call void @llvm.lifetime.end.p0i8(i64 4, i8* nonnull %6) #4
  call void @llvm.lifetime.end.p0i8(i64 4, i8* nonnull %5) #4
  ret i32 0

155:                                              ; preds = %73
  store i32 %77, i32* %48, align 4, !tbaa !5
  store i32 %75, i32* %76, align 4, !tbaa !5
  br label %156

156:                                              ; preds = %155, %73
  %157 = add nuw nsw i64 %67, 2
  %158 = icmp eq i64 %157, %39
  br i1 %158, label %41, label %66, !llvm.loop !15

159:                                              ; preds = %116
  store i32 %120, i32* %91, align 4, !tbaa !5
  store i32 %118, i32* %119, align 4, !tbaa !5
  br label %160

160:                                              ; preds = %159, %116
  %161 = add nuw nsw i64 %110, 2
  %162 = icmp eq i64 %161, %82
  br i1 %162, label %84, label %109, !llvm.loop !15
}

; Function Attrs: argmemonly mustprogress nofree nosync nounwind willreturn
declare void @llvm.lifetime.start.p0i8(i64 immarg, i8* nocapture) #1

; Function Attrs: nofree nounwind
declare noundef i32 @__isoc99_scanf(i8* nocapture noundef readonly, ...) local_unnamed_addr #2

; Function Attrs: nofree norecurse nosync nounwind sspstrong uwtable
define dso_local void @xu(i32* nocapture %0, i32 %1) local_unnamed_addr #3 {
  %3 = icmp sgt i32 %1, 0
  br i1 %3, label %4, label %46

4:                                                ; preds = %2
  %5 = zext i32 %1 to i64
  %6 = zext i32 %1 to i64
  %7 = add nsw i64 %6, -2
  br label %11

8:                                                ; preds = %30, %48, %11
  %9 = add nuw nsw i64 %13, 1
  %10 = icmp eq i64 %14, %6
  br i1 %10, label %46, label %11, !llvm.loop !12

11:                                               ; preds = %4, %8
  %12 = phi i64 [ 0, %4 ], [ %14, %8 ]
  %13 = phi i64 [ 1, %4 ], [ %9, %8 ]
  %14 = add nuw nsw i64 %12, 1
  %15 = getelementptr inbounds i32, i32* %0, i64 %12
  %16 = icmp ult i64 %14, %5
  br i1 %16, label %17, label %8

17:                                               ; preds = %11
  %18 = xor i64 %12, -1
  %19 = add nsw i64 %18, %6
  %20 = and i64 %19, 1
  %21 = icmp eq i64 %20, 0
  br i1 %21, label %30, label %22

22:                                               ; preds = %17
  %23 = load i32, i32* %15, align 4, !tbaa !5
  %24 = getelementptr inbounds i32, i32* %0, i64 %13
  %25 = load i32, i32* %24, align 4, !tbaa !5
  %26 = icmp sgt i32 %23, %25
  br i1 %26, label %27, label %28

27:                                               ; preds = %22
  store i32 %25, i32* %15, align 4, !tbaa !5
  store i32 %23, i32* %24, align 4, !tbaa !5
  br label %28

28:                                               ; preds = %27, %22
  %29 = add nuw nsw i64 %13, 1
  br label %30

30:                                               ; preds = %28, %17
  %31 = phi i64 [ %29, %28 ], [ %13, %17 ]
  %32 = icmp eq i64 %7, %12
  br i1 %32, label %8, label %33

33:                                               ; preds = %30, %48
  %34 = phi i64 [ %49, %48 ], [ %31, %30 ]
  %35 = load i32, i32* %15, align 4, !tbaa !5
  %36 = getelementptr inbounds i32, i32* %0, i64 %34
  %37 = load i32, i32* %36, align 4, !tbaa !5
  %38 = icmp sgt i32 %35, %37
  br i1 %38, label %39, label %40

39:                                               ; preds = %33
  store i32 %37, i32* %15, align 4, !tbaa !5
  store i32 %35, i32* %36, align 4, !tbaa !5
  br label %40

40:                                               ; preds = %39, %33
  %41 = add nuw nsw i64 %34, 1
  %42 = load i32, i32* %15, align 4, !tbaa !5
  %43 = getelementptr inbounds i32, i32* %0, i64 %41
  %44 = load i32, i32* %43, align 4, !tbaa !5
  %45 = icmp sgt i32 %42, %44
  br i1 %45, label %47, label %48

46:                                               ; preds = %8, %2
  ret void

47:                                               ; preds = %40
  store i32 %44, i32* %15, align 4, !tbaa !5
  store i32 %42, i32* %43, align 4, !tbaa !5
  br label %48

48:                                               ; preds = %47, %40
  %49 = add nuw nsw i64 %34, 2
  %50 = icmp eq i64 %49, %6
  br i1 %50, label %8, label %33, !llvm.loop !15
}

; Function Attrs: nofree nounwind
declare noundef i32 @printf(i8* nocapture noundef readonly, ...) local_unnamed_addr #2

; Function Attrs: argmemonly mustprogress nofree nosync nounwind willreturn
declare void @llvm.lifetime.end.p0i8(i64 immarg, i8* nocapture) #1


!llvm.module.flags = !{!0, !1, !2, !3}
!llvm.ident = !{!4}

!0 = !{i32 1, !"wchar_size", i32 4}
!1 = !{i32 7, !"PIC Level", i32 2}
!2 = !{i32 7, !"PIE Level", i32 2}
!3 = !{i32 7, !"uwtable", i32 1}
!4 = !{!"clang version 13.0.0"}
!5 = !{!6, !6, i64 0}
!6 = !{!"int", !7, i64 0}
!7 = !{!"omnipotent char", !8, i64 0}
!8 = !{!"Simple C/C++ TBAA"}
!9 = distinct !{!9, !10}
!10 = !{!"llvm.loop.mustprogress"}
!11 = distinct !{!11, !10}
!12 = distinct !{!12, !10}
!13 = distinct !{!13, !10}
!14 = distinct !{!14, !10}
!15 = distinct !{!15, !10}
